target datalayout = "e-m:e-p270:32:32-p271:32:32-p272:64:64-i64:64-i128:128-f80:128-n8:16:32:64-S128"
target triple = "x86_64-pc-linux-gnu"

%struct.stbrp_context = type { i32, i32, i32, i32, i32 }
%struct.stbtt_pack_context = type { ptr, ptr, i32, i32, i32, i32, i32, i32, i32, ptr, ptr }

; Function Attrs: nounwind uwtable
define void @stbrp_init_target(ptr noundef %0, i32 noundef %1, i32 noundef %2, ptr noundef %3, i32 noundef %4) #0 {
  %6 = alloca ptr, align 8
  %7 = alloca i32, align 4
  %8 = alloca i32, align 4
  %9 = alloca ptr, align 8
  %10 = alloca i32, align 4
  store ptr %0, ptr %6, align 8, !tbaa !3
  store i32 %1, ptr %7, align 4, !tbaa !14
  store i32 %2, ptr %8, align 4, !tbaa !14
  store ptr %3, ptr %9, align 8, !tbaa !3
  store i32 %4, ptr %10, align 4, !tbaa !14
  %11 = load i32, ptr %7, align 4, !tbaa !14
  %12 = load ptr, ptr %6, align 8, !tbaa !3
  %13 = getelementptr inbounds nuw %struct.stbrp_context, ptr %12, i32 0, i32 0
  store i32 %11, ptr %13, align 4, !tbaa !184
  %14 = load i32, ptr %8, align 4, !tbaa !14
  %15 = load ptr, ptr %6, align 8, !tbaa !3
  %16 = getelementptr inbounds nuw %struct.stbrp_context, ptr %15, i32 0, i32 1
  store i32 %14, ptr %16, align 4, !tbaa !186
  %17 = load ptr, ptr %6, align 8, !tbaa !3
  %18 = getelementptr inbounds nuw %struct.stbrp_context, ptr %17, i32 0, i32 2
  store i32 0, ptr %18, align 4, !tbaa !187
  %19 = load ptr, ptr %6, align 8, !tbaa !3
  %20 = getelementptr inbounds nuw %struct.stbrp_context, ptr %19, i32 0, i32 3
  store i32 0, ptr %20, align 4, !tbaa !188
  %21 = load ptr, ptr %6, align 8, !tbaa !3
  %22 = getelementptr inbounds nuw %struct.stbrp_context, ptr %21, i32 0, i32 4
  store i32 0, ptr %22, align 4, !tbaa !189
  ret void
}

; Function Attrs: nounwind uwtable
define i32 @stbtt_PackBegin(ptr noundef %0, ptr noundef %1, i32 noundef %2, i32 noundef %3, i32 noundef %4, i32 noundef %5, ptr noundef %6) #0 {
  %8 = alloca i32, align 4
  %9 = alloca ptr, align 8
  %10 = alloca ptr, align 8
  %11 = alloca i32, align 4
  %12 = alloca i32, align 4
  %13 = alloca i32, align 4
  %14 = alloca i32, align 4
  %15 = alloca ptr, align 8
  %16 = alloca ptr, align 8
  %17 = alloca i32, align 4
  %18 = alloca ptr, align 8
  %19 = alloca i32, align 4
  store ptr %0, ptr %9, align 8, !tbaa !200
  store ptr %1, ptr %10, align 8, !tbaa !25
  store i32 %2, ptr %11, align 4, !tbaa !14
  store i32 %3, ptr %12, align 4, !tbaa !14
  store i32 %4, ptr %13, align 4, !tbaa !14
  store i32 %5, ptr %14, align 4, !tbaa !14
  store ptr %6, ptr %15, align 8, !tbaa !3
  call void @llvm.lifetime.start.p0(i64 8, ptr %16) #8
  %20 = call noalias ptr @malloc(i64 noundef 20) #9
  store ptr %20, ptr %16, align 8, !tbaa !3
  call void @llvm.lifetime.start.p0(i64 4, ptr %17) #8
  %21 = load i32, ptr %11, align 4, !tbaa !14
  %22 = load i32, ptr %14, align 4, !tbaa !14
  %23 = sub nsw i32 %21, %22
  store i32 %23, ptr %17, align 4, !tbaa !14
  call void @llvm.lifetime.start.p0(i64 8, ptr %18) #8
  %24 = load i32, ptr %17, align 4, !tbaa !14
  %25 = sext i32 %24 to i64
  %26 = mul i64 1, %25
  %27 = call noalias ptr @malloc(i64 noundef %26) #9
  store ptr %27, ptr %18, align 8, !tbaa !3
  %28 = load ptr, ptr %16, align 8, !tbaa !3
  %29 = icmp eq ptr %28, null
  br i1 %29, label %33, label %30

30:                                               ; preds = %7
  %31 = load ptr, ptr %18, align 8, !tbaa !3
  %32 = icmp eq ptr %31, null
  br i1 %32, label %33, label %44

33:                                               ; preds = %30, %7
  %34 = load ptr, ptr %16, align 8, !tbaa !3
  %35 = icmp ne ptr %34, null
  br i1 %35, label %36, label %38

36:                                               ; preds = %33
  %37 = load ptr, ptr %16, align 8, !tbaa !3
  call void @free(ptr noundef %37) #8
  br label %38

38:                                               ; preds = %36, %33
  %39 = load ptr, ptr %18, align 8, !tbaa !3
  %40 = icmp ne ptr %39, null
  br i1 %40, label %41, label %43

41:                                               ; preds = %38
  %42 = load ptr, ptr %18, align 8, !tbaa !3
  call void @free(ptr noundef %42) #8
  br label %43

43:                                               ; preds = %41, %38
  store i32 0, ptr %8, align 4
  store i32 1, ptr %19, align 4
  br label %100

44:                                               ; preds = %30
  %45 = load ptr, ptr %15, align 8, !tbaa !3
  %46 = load ptr, ptr %9, align 8, !tbaa !200
  %47 = getelementptr inbounds nuw %struct.stbtt_pack_context, ptr %46, i32 0, i32 0
  store ptr %45, ptr %47, align 8, !tbaa !202
  %48 = load i32, ptr %11, align 4, !tbaa !14
  %49 = load ptr, ptr %9, align 8, !tbaa !200
  %50 = getelementptr inbounds nuw %struct.stbtt_pack_context, ptr %49, i32 0, i32 2
  store i32 %48, ptr %50, align 8, !tbaa !204
  %51 = load i32, ptr %12, align 4, !tbaa !14
  %52 = load ptr, ptr %9, align 8, !tbaa !200
  %53 = getelementptr inbounds nuw %struct.stbtt_pack_context, ptr %52, i32 0, i32 3
  store i32 %51, ptr %53, align 4, !tbaa !205
  %54 = load ptr, ptr %10, align 8, !tbaa !25
  %55 = load ptr, ptr %9, align 8, !tbaa !200
  %56 = getelementptr inbounds nuw %struct.stbtt_pack_context, ptr %55, i32 0, i32 9
  store ptr %54, ptr %56, align 8, !tbaa !206
  %57 = load ptr, ptr %16, align 8, !tbaa !3
  %58 = load ptr, ptr %9, align 8, !tbaa !200
  %59 = getelementptr inbounds nuw %struct.stbtt_pack_context, ptr %58, i32 0, i32 1
  store ptr %57, ptr %59, align 8, !tbaa !207
  %60 = load ptr, ptr %18, align 8, !tbaa !3
  %61 = load ptr, ptr %9, align 8, !tbaa !200
  %62 = getelementptr inbounds nuw %struct.stbtt_pack_context, ptr %61, i32 0, i32 10
  store ptr %60, ptr %62, align 8, !tbaa !208
  %63 = load i32, ptr %14, align 4, !tbaa !14
  %64 = load ptr, ptr %9, align 8, !tbaa !200
  %65 = getelementptr inbounds nuw %struct.stbtt_pack_context, ptr %64, i32 0, i32 5
  store i32 %63, ptr %65, align 4, !tbaa !209
  %66 = load i32, ptr %13, align 4, !tbaa !14
  %67 = icmp ne i32 %66, 0
  br i1 %67, label %68, label %70

68:                                               ; preds = %44
  %69 = load i32, ptr %13, align 4, !tbaa !14
  br label %72

70:                                               ; preds = %44
  %71 = load i32, ptr %11, align 4, !tbaa !14
  br label %72

72:                                               ; preds = %70, %68
  %73 = phi i32 [ %69, %68 ], [ %71, %70 ]
  %74 = load ptr, ptr %9, align 8, !tbaa !200
  %75 = getelementptr inbounds nuw %struct.stbtt_pack_context, ptr %74, i32 0, i32 4
  store i32 %73, ptr %75, align 8, !tbaa !210
  %76 = load ptr, ptr %9, align 8, !tbaa !200
  %77 = getelementptr inbounds nuw %struct.stbtt_pack_context, ptr %76, i32 0, i32 7
  store i32 1, ptr %77, align 4, !tbaa !211
  %78 = load ptr, ptr %9, align 8, !tbaa !200
  %79 = getelementptr inbounds nuw %struct.stbtt_pack_context, ptr %78, i32 0, i32 8
  store i32 1, ptr %79, align 8, !tbaa !212
  %80 = load ptr, ptr %9, align 8, !tbaa !200
  %81 = getelementptr inbounds nuw %struct.stbtt_pack_context, ptr %80, i32 0, i32 6
  store i32 0, ptr %81, align 8, !tbaa !213
  %82 = load ptr, ptr %16, align 8, !tbaa !3
  %83 = load i32, ptr %11, align 4, !tbaa !14
  %84 = load i32, ptr %14, align 4, !tbaa !14
  %85 = sub nsw i32 %83, %84
  %86 = load i32, ptr %12, align 4, !tbaa !14
  %87 = load i32, ptr %14, align 4, !tbaa !14
  %88 = sub nsw i32 %86, %87
  %89 = load ptr, ptr %18, align 8, !tbaa !3
  %90 = load i32, ptr %17, align 4, !tbaa !14
  call void @stbrp_init_target(ptr noundef %82, i32 noundef %85, i32 noundef %88, ptr noundef %89, i32 noundef %90)
  %91 = load ptr, ptr %10, align 8, !tbaa !25
  %92 = icmp ne ptr %91, null
  br i1 %92, label %93, label %99

93:                                               ; preds = %72
  %94 = load ptr, ptr %10, align 8, !tbaa !25
  %95 = load i32, ptr %11, align 4, !tbaa !14
  %96 = load i32, ptr %12, align 4, !tbaa !14
  %97 = mul nsw i32 %95, %96
  %98 = sext i32 %97 to i64
  call void @llvm.memset.p0.i64(ptr align 1 %94, i8 0, i64 %98, i1 false)
  br label %99

99:                                               ; preds = %93, %72
  store i32 1, ptr %8, align 4
  store i32 1, ptr %19, align 4
  br label %100

100:                                              ; preds = %99, %43
  call void @llvm.lifetime.end.p0(i64 8, ptr %18) #8
  call void @llvm.lifetime.end.p0(i64 4, ptr %17) #8
  call void @llvm.lifetime.end.p0(i64 8, ptr %16) #8
  %101 = load i32, ptr %8, align 4
  ret i32 %101
}