; Function Attrs: mustprogress nounwind willreturn memory(readwrite, argmem: write) uwtable
define range(i32 0, 2) i32 @stbtt_PackBegin(ptr noundef writeonly captures(none) %0, ptr noundef %1, i32 noundef %2, i32 noundef %3, i32 noundef %4, i32 noundef %5, ptr noundef %6) local_unnamed_addr #24 {
  %8 = tail call noalias dereferenceable_or_null(20) ptr @malloc(i64 noundef 20) #33
  %9 = sub nsw i32 %2, %5
  %10 = sext i32 %9 to i64
  %11 = tail call noalias ptr @malloc(i64 noundef %10) #33
  %12 = icmp eq ptr %8, null
  %13 = icmp eq ptr %11, null
  %or.cond = or i1 %12, %13
  br i1 %or.cond, label %14, label %18

14:                                               ; preds = %7
  br i1 %12, label %16, label %15

15:                                               ; preds = %14
  tail call void @free(ptr noundef nonnull %8) #32
  br label %16

16:                                               ; preds = %15, %14
  br i1 %13, label %38, label %17

17:                                               ; preds = %16
  tail call void @free(ptr noundef nonnull %11) #32
  br label %38

18:                                               ; preds = %7
  store ptr %6, ptr %0, align 8, !tbaa !177
  %19 = getelementptr inbounds nuw i8, ptr %0, i64 16
  store i32 %2, ptr %19, align 8, !tbaa !179
  %20 = getelementptr inbounds nuw i8, ptr %0, i64 20
  store i32 %3, ptr %20, align 4, !tbaa !180
  %21 = getelementptr inbounds nuw i8, ptr %0, i64 48
  store ptr %1, ptr %21, align 8, !tbaa !181
  %22 = getelementptr inbounds nuw i8, ptr %0, i64 8
  store ptr %8, ptr %22, align 8, !tbaa !182
  %23 = getelementptr inbounds nuw i8, ptr %0, i64 56
  store ptr %11, ptr %23, align 8, !tbaa !183
  %24 = getelementptr inbounds nuw i8, ptr %0, i64 28
  store i32 %5, ptr %24, align 4, !tbaa !184
  %.not = icmp eq i32 %4, 0
  %25 = select i1 %.not, i32 %2, i32 %4
  %26 = getelementptr inbounds nuw i8, ptr %0, i64 24
  store i32 %25, ptr %26, align 8, !tbaa !185
  %27 = getelementptr inbounds nuw i8, ptr %0, i64 36
  store i32 1, ptr %27, align 4, !tbaa !186
  %28 = getelementptr inbounds nuw i8, ptr %0, i64 40
  store i32 1, ptr %28, align 8, !tbaa !187
  %29 = getelementptr inbounds nuw i8, ptr %0, i64 32
  store i32 0, ptr %29, align 8, !tbaa !188
  %30 = sub nsw i32 %3, %5
  store i32 %9, ptr %8, align 4, !tbaa !163
  %31 = getelementptr inbounds nuw i8, ptr %8, i64 4
  store i32 %30, ptr %31, align 4, !tbaa !165
  %32 = getelementptr inbounds nuw i8, ptr %8, i64 8
  store i32 0, ptr %32, align 4, !tbaa !166
  %33 = getelementptr inbounds nuw i8, ptr %8, i64 12
  store i32 0, ptr %33, align 4, !tbaa !167
  %34 = getelementptr inbounds nuw i8, ptr %8, i64 16
  store i32 0, ptr %34, align 4, !tbaa !168
  %.not46 = icmp eq ptr %1, null
  br i1 %.not46, label %38, label %35

35:                                               ; preds = %18
  %36 = mul nsw i32 %3, %2
  %37 = sext i32 %36 to i64
  tail call void @llvm.memset.p0.i64(ptr nonnull align 1 %1, i8 0, i64 %37, i1 false)
  br label %38

38:                                               ; preds = %18, %35, %16, %17
  %.0 = phi i32 [ 0, %17 ], [ 0, %16 ], [ 1, %35 ], [ 1, %18 ]
  ret i32 %.0
}